; ModuleID = '60/993.c'
source_filename = "60/993.c"
target datalayout = "e-m:e-p270:32:32-p271:32:32-p272:64:64-i64:64-f80:128-n8:16:32:64-S128"
target triple = "x86_64-pc-linux-gnu"

@.str = private unnamed_addr constant [3 x i8] c"%d\00", align 1
@.str.1 = private unnamed_addr constant [7 x i8] c"%d %d\0A\00", align 1
@.str.2 = private unnamed_addr constant [6 x i8] c"empty\00", align 1

; Function Attrs: noinline nounwind uwtable
define dso_local i32 @main(i32 %0, i8** %1) #0 {
  %3 = alloca i32, align 4
  %4 = alloca i32, align 4
  %5 = alloca i8**, align 8
  %6 = alloca i32, align 4
  %7 = alloca i32, align 4
  %8 = alloca i32, align 4
  %9 = alloca i32, align 4
  %10 = alloca i32, align 4
  store i32 0, i32* %3, align 4
  store i32 %0, i32* %4, align 4
  store i8** %1, i8*** %5, align 8
  store i32 0, i32* %10, align 4
  %11 = call i32 (i8*, ...) @__isoc99_scanf(i8* getelementptr inbounds ([3 x i8], [3 x i8]* @.str, i64 0, i64 0), i32* %6)
  store i32 3, i32* %7, align 4
  br label %12

12:                                               ; preds = %71, %2
  %13 = load i32, i32* %7, align 4
  %14 = load i32, i32* %6, align 4
  %15 = sub nsw i32 %14, 2
  %16 = icmp sle i32 %13, %15
  br i1 %16, label %17, label %74

17:                                               ; preds = %12
  store i32 2, i32* %9, align 4
  store i32 0, i32* %8, align 4
  br label %18

18:                                               ; preds = %31, %17
  %19 = load i32, i32* %9, align 4
  %20 = load i32, i32* %7, align 4
  %21 = icmp slt i32 %19, %20
  br i1 %21, label %22, label %34

22:                                               ; preds = %18
  %23 = load i32, i32* %7, align 4
  %24 = load i32, i32* %9, align 4
  %25 = srem i32 %23, %24
  %26 = icmp ne i32 %25, 0
  br i1 %26, label %27, label %30

27:                                               ; preds = %22
  %28 = load i32, i32* %8, align 4
  %29 = add nsw i32 %28, 1
  store i32 %29, i32* %8, align 4
  br label %30

30:                                               ; preds = %27, %22
  br label %31

31:                                               ; preds = %30
  %32 = load i32, i32* %9, align 4
  %33 = add nsw i32 %32, 1
  store i32 %33, i32* %9, align 4
  br label %18

34:                                               ; preds = %18
  %35 = load i32, i32* %8, align 4
  %36 = load i32, i32* %7, align 4
  %37 = sub nsw i32 %36, 2
  %38 = icmp eq i32 %35, %37
  br i1 %38, label %39, label %70

39:                                               ; preds = %34
  store i32 2, i32* %9, align 4
  store i32 0, i32* %8, align 4
  br label %40

40:                                               ; preds = %55, %39
  %41 = load i32, i32* %9, align 4
  %42 = load i32, i32* %7, align 4
  %43 = add nsw i32 %42, 2
  %44 = icmp slt i32 %41, %43
  br i1 %44, label %45, label %58

45:                                               ; preds = %40
  %46 = load i32, i32* %7, align 4
  %47 = add nsw i32 %46, 2
  %48 = load i32, i32* %9, align 4
  %49 = srem i32 %47, %48
  %50 = icmp ne i32 %49, 0
  br i1 %50, label %51, label %54

51:                                               ; preds = %45
  %52 = load i32, i32* %8, align 4
  %53 = add nsw i32 %52, 1
  store i32 %53, i32* %8, align 4
  br label %54

54:                                               ; preds = %51, %45
  br label %55

55:                                               ; preds = %54
  %56 = load i32, i32* %9, align 4
  %57 = add nsw i32 %56, 1
  store i32 %57, i32* %9, align 4
  br label %40

58:                                               ; preds = %40
  %59 = load i32, i32* %8, align 4
  %60 = load i32, i32* %7, align 4
  %61 = icmp eq i32 %59, %60
  br i1 %61, label %62, label %69

62:                                               ; preds = %58
  %63 = load i32, i32* %7, align 4
  %64 = load i32, i32* %7, align 4
  %65 = add nsw i32 %64, 2
  %66 = call i32 (i8*, ...) @printf(i8* getelementptr inbounds ([7 x i8], [7 x i8]* @.str.1, i64 0, i64 0), i32 %63, i32 %65)
  %67 = load i32, i32* %10, align 4
  %68 = add nsw i32 %67, 1
  store i32 %68, i32* %10, align 4
  br label %69

69:                                               ; preds = %62, %58
  br label %70

70:                                               ; preds = %69, %34
  br label %71

71:                                               ; preds = %70
  %72 = load i32, i32* %7, align 4
  %73 = add nsw i32 %72, 1
  store i32 %73, i32* %7, align 4
  br label %12

74:                                               ; preds = %12
  %75 = load i32, i32* %10, align 4
  %76 = icmp eq i32 %75, 0
  br i1 %76, label %77, label %79

77:                                               ; preds = %74
  %78 = call i32 (i8*, ...) @printf(i8* getelementptr inbounds ([6 x i8], [6 x i8]* @.str.2, i64 0, i64 0))
  br label %79

79:                                               ; preds = %77, %74
  ret i32 0
}

declare dso_local i32 @__isoc99_scanf(i8*, ...) #1

declare dso_local i32 @printf(i8*, ...) #1


!llvm.module.flags = !{!0}
!llvm.ident = !{!1}

!0 = !{i32 1, !"wchar_size", i32 4}
!1 = !{!"clang version 10.0.0-4ubuntu1 "}
